; Function Attrs: mustprogress uwtable
define void @_ZN11OpenImageIO6v3_1_012ImageBufAlgo8convolveERKNS0_8ImageBufES4_bNS0_3ROIEi(ptr dead_on_unwind noalias nonnull writable sret(%"class.OpenImageIO::v3_1_0::ImageBuf") align 8 %0, ptr noundef nonnull align 8 dereferenceable(16) %1, ptr noundef nonnull align 8 dereferenceable(16) %2, i1 noundef zeroext %3, ptr noundef readonly byval(%"struct.OpenImageIO::v3_1_0::ROI") align 8 captures(none) %4, i32 noundef %5) local_unnamed_addr #5 personality ptr @__gxx_personality_v0 {
  tail call void @_ZN11OpenImageIO6v3_1_08ImageBufC1Ev(ptr noundef nonnull align 8 dereferenceable(16) %0)
  %7 = invoke noundef zeroext i1 @_ZN11OpenImageIO6v3_1_012ImageBufAlgo8convolveERNS0_8ImageBufERKS2_S5_bNS0_3ROIEi(ptr noundef nonnull align 8 dereferenceable(16) %0, ptr noundef nonnull align 8 dereferenceable(16) %1, ptr noundef nonnull align 8 dereferenceable(16) %2, i1 noundef zeroext %3, ptr noundef nonnull byval(%"struct.OpenImageIO::v3_1_0::ROI") align 8 %4, i32 noundef %5)
          to label %8 unwind label %13

8:                                                ; preds = %6
  br i1 %7, label %15, label %9

9:                                                ; preds = %8
  %10 = invoke noundef zeroext i1 @_ZNK11OpenImageIO6v3_1_08ImageBuf9has_errorEv(ptr noundef nonnull align 8 dereferenceable(16) %0)
          to label %11 unwind label %13

11:                                               ; preds = %9
  br i1 %10, label %15, label %12

12:                                               ; preds = %11
  invoke void @_ZNK11OpenImageIO6v3_1_08ImageBuf8errorfmtIA31_cJEEEvRKT_DpOT0_(ptr noundef nonnull align 8 dereferenceable(16) %0, ptr noundef nonnull align 1 dereferenceable(31) @.str.39)
          to label %15 unwind label %13

13:                                               ; preds = %12, %9, %6
  %14 = landingpad { ptr, i32 }
          cleanup
  tail call void @_ZN11OpenImageIO6v3_1_08ImageBufD1Ev(ptr noundef nonnull align 8 dereferenceable(16) %0) #28
  resume { ptr, i32 } %14

15:                                               ; preds = %8, %11, %12
  ret void
}